; Function Attrs: mustprogress uwtable
define void @_ZN8QuantLib21ConstantRecoveryModelC1EdNS_9SeniorityE(ptr noundef nonnull align 8 dereferenceable(80) %this, double noundef %recovery, i32 noundef %sen) unnamed_addr #6 align 2 personality ptr @__gxx_personality_v0 {
entry:
  %recovery.addr = alloca double, align 8
  %sen.addr = alloca i32, align 4
  %ref.tmp = alloca %"class.boost::shared_ptr.11", align 8
  store double %recovery, ptr %recovery.addr, align 8, !tbaa !56
  store i32 %sen, ptr %sen.addr, align 4, !tbaa !58
  %0 = getelementptr inbounds i8, ptr %this, i64 80
  %1 = getelementptr inbounds i8, ptr %this, i64 96
  store i32 0, ptr %1, align 8, !tbaa !8
  %_M_parent.i.i.i.i.i.i = getelementptr inbounds i8, ptr %this, i64 104
  store ptr null, ptr %_M_parent.i.i.i.i.i.i, align 8, !tbaa !13
  %_M_left.i.i.i.i.i.i = getelementptr inbounds i8, ptr %this, i64 112
  store ptr %1, ptr %_M_left.i.i.i.i.i.i, align 8, !tbaa !14
  %_M_right.i.i.i.i.i.i = getelementptr inbounds i8, ptr %this, i64 120
  store ptr %1, ptr %_M_right.i.i.i.i.i.i, align 8, !tbaa !15
  %_M_node_count.i.i.i.i.i.i = getelementptr inbounds i8, ptr %this, i64 128
  store i64 0, ptr %_M_node_count.i.i.i.i.i.i, align 8, !tbaa !16
  %2 = getelementptr inbounds i8, ptr %this, i64 8
  %3 = getelementptr inbounds i8, ptr %this, i64 24
  store i32 0, ptr %3, align 8, !tbaa !8
  %_M_parent.i.i.i.i.i.i2 = getelementptr inbounds i8, ptr %this, i64 32
  store ptr null, ptr %_M_parent.i.i.i.i.i.i2, align 8, !tbaa !13
  %_M_left.i.i.i.i.i.i3 = getelementptr inbounds i8, ptr %this, i64 40
  store ptr %3, ptr %_M_left.i.i.i.i.i.i3, align 8, !tbaa !14
  %_M_right.i.i.i.i.i.i4 = getelementptr inbounds i8, ptr %this, i64 48
  store ptr %3, ptr %_M_right.i.i.i.i.i.i4, align 8, !tbaa !15
  %_M_node_count.i.i.i.i.i.i5 = getelementptr inbounds i8, ptr %this, i64 56
  store i64 0, ptr %_M_node_count.i.i.i.i.i.i5, align 8, !tbaa !16
  store ptr getelementptr inbounds inrange(-24, 48) (i8, ptr @_ZTVN8QuantLib21ConstantRecoveryModelE, i64 24), ptr %this, align 8, !tbaa !35
  store ptr getelementptr inbounds inrange(-24, 16) (i8, ptr @_ZTVN8QuantLib21ConstantRecoveryModelE, i64 144), ptr %0, align 8, !tbaa !35
  store ptr getelementptr inbounds inrange(-16, 32) (i8, ptr @_ZTVN8QuantLib21ConstantRecoveryModelE, i64 88), ptr %2, align 8, !tbaa !35
  call void @llvm.lifetime.start.p0(i64 16, ptr nonnull %ref.tmp) #24
  invoke void @_ZN5boost11make_sharedIN8QuantLib17RecoveryRateQuoteEJRdRNS1_9SeniorityEEEENS_6detail15sp_if_not_arrayIT_E4typeEDpOT0_(ptr dead_on_unwind nonnull writable sret(%"class.boost::shared_ptr.11") align 8 %ref.tmp, ptr noundef nonnull align 8 dereferenceable(8) %recovery.addr, ptr noundef nonnull align 4 dereferenceable(4) %sen.addr)
          to label %invoke.cont unwind label %lpad

invoke.cont:                                      ; preds = %entry
  %quote_ = getelementptr inbounds nuw i8, ptr %this, i64 64
  invoke void @_ZN8QuantLib6HandleINS_17RecoveryRateQuoteEEC2EON5boost10shared_ptrIS1_EEb(ptr noundef nonnull align 8 dereferenceable(16) %quote_, ptr noundef nonnull align 8 dereferenceable(16) %ref.tmp, i1 noundef zeroext true)
          to label %invoke.cont4 unwind label %lpad3

invoke.cont4:                                     ; preds = %invoke.cont
  %pn.i = getelementptr inbounds nuw i8, ptr %ref.tmp, i64 8
  %4 = load ptr, ptr %pn.i, align 8, !tbaa !37
  %cmp.not.i.i = icmp eq ptr %4, null
  br i1 %cmp.not.i.i, label %_ZN5boost10shared_ptrIN8QuantLib17RecoveryRateQuoteEED2Ev.exit, label %if.then.i.i

if.then.i.i:                                      ; preds = %invoke.cont4
  %use_count_.i.i.i = getelementptr inbounds nuw i8, ptr %4, i64 8
  %5 = atomicrmw sub ptr %use_count_.i.i.i, i32 1 acq_rel, align 4
  %cmp.i.i.i = icmp eq i32 %5, 1
  br i1 %cmp.i.i.i, label %if.then.i.i.i, label %_ZN5boost10shared_ptrIN8QuantLib17RecoveryRateQuoteEED2Ev.exit

if.then.i.i.i:                                    ; preds = %if.then.i.i
  %vtable.i.i.i = load ptr, ptr %4, align 8, !tbaa !35
  %vfn.i.i.i = getelementptr inbounds i8, ptr %vtable.i.i.i, i64 16
  %6 = load ptr, ptr %vfn.i.i.i, align 8
  invoke void %6(ptr noundef nonnull align 8 dereferenceable(16) %4)
          to label %.noexc.i.i unwind label %terminate.lpad.i.i

.noexc.i.i:                                       ; preds = %if.then.i.i.i
  %weak_count_.i.i.i.i = getelementptr inbounds nuw i8, ptr %4, i64 12
  %7 = atomicrmw sub ptr %weak_count_.i.i.i.i, i32 1 acq_rel, align 4
  %cmp.i.i.i.i = icmp eq i32 %7, 1
  br i1 %cmp.i.i.i.i, label %if.then.i.i.i.i, label %_ZN5boost10shared_ptrIN8QuantLib17RecoveryRateQuoteEED2Ev.exit

if.then.i.i.i.i:                                  ; preds = %.noexc.i.i
  %vtable.i.i.i.i = load ptr, ptr %4, align 8, !tbaa !35
  %vfn.i.i.i.i = getelementptr inbounds i8, ptr %vtable.i.i.i.i, i64 24
  %8 = load ptr, ptr %vfn.i.i.i.i, align 8
  invoke void %8(ptr noundef nonnull align 8 dereferenceable(16) %4)
          to label %_ZN5boost10shared_ptrIN8QuantLib17RecoveryRateQuoteEED2Ev.exit unwind label %terminate.lpad.i.i

terminate.lpad.i.i:                               ; preds = %if.then.i.i.i.i, %if.then.i.i.i
  %9 = landingpad { ptr, i32 }
          catch ptr null
  %10 = extractvalue { ptr, i32 } %9, 0
  call void @__clang_call_terminate(ptr %10) #25
  unreachable

_ZN5boost10shared_ptrIN8QuantLib17RecoveryRateQuoteEED2Ev.exit: ; preds = %invoke.cont4, %if.then.i.i, %.noexc.i.i, %if.then.i.i.i.i
  call void @llvm.lifetime.end.p0(i64 16, ptr nonnull %ref.tmp) #24
  ret void

lpad:                                             ; preds = %entry
  %11 = landingpad { ptr, i32 }
          cleanup
  br label %ehcleanup

lpad3:                                            ; preds = %invoke.cont
  %12 = landingpad { ptr, i32 }
          cleanup
  call void @_ZN5boost10shared_ptrIN8QuantLib17RecoveryRateQuoteEED2Ev(ptr noundef nonnull align 8 dereferenceable(16) %ref.tmp) #24
  br label %ehcleanup

ehcleanup:                                        ; preds = %lpad3, %lpad
  %.pn = phi { ptr, i32 } [ %12, %lpad3 ], [ %11, %lpad ]
  call void @llvm.lifetime.end.p0(i64 16, ptr nonnull %ref.tmp) #24
  call void @_ZN8QuantLib8ObserverD2Ev(ptr noundef nonnull align 8 dereferenceable(56) %2) #24
  call void @_ZN8QuantLib10ObservableD2Ev(ptr noundef nonnull align 8 dereferenceable(56) %0) #24
  resume { ptr, i32 } %.pn
}